; ModuleID = '40/1612.c'
source_filename = "40/1612.c"
target datalayout = "e-m:e-p270:32:32-p271:32:32-p272:64:64-i64:64-f80:128-n8:16:32:64-S128"
target triple = "x86_64-pc-linux-gnu"

@.str = private unnamed_addr constant [4 x i8] c"%lf\00", align 1
@.str.1 = private unnamed_addr constant [14 x i8] c"Invalid input\00", align 1
@.str.2 = private unnamed_addr constant [6 x i8] c"%.4lf\00", align 1

; Function Attrs: noinline nounwind uwtable
define dso_local double @f(double %0, double %1, double %2, double %3, double %4) #0 {
  %6 = alloca double, align 8
  %7 = alloca double, align 8
  %8 = alloca double, align 8
  %9 = alloca double, align 8
  %10 = alloca double, align 8
  %11 = alloca double, align 8
  %12 = alloca double, align 8
  %13 = alloca double, align 8
  store double %0, double* %6, align 8
  store double %1, double* %7, align 8
  store double %2, double* %8, align 8
  store double %3, double* %9, align 8
  store double %4, double* %10, align 8
  %14 = load double, double* %10, align 8
  %15 = fdiv double %14, 3.600000e+02
  %16 = fmul double %15, 0x400921FB4D12D84A
  store double %16, double* %12, align 8
  %17 = load double, double* %6, align 8
  %18 = load double, double* %7, align 8
  %19 = fadd double %17, %18
  %20 = load double, double* %8, align 8
  %21 = fadd double %19, %20
  %22 = load double, double* %9, align 8
  %23 = fadd double %21, %22
  %24 = fdiv double %23, 2.000000e+00
  store double %24, double* %13, align 8
  %25 = load double, double* %13, align 8
  %26 = load double, double* %6, align 8
  %27 = fsub double %25, %26
  %28 = load double, double* %13, align 8
  %29 = load double, double* %7, align 8
  %30 = fsub double %28, %29
  %31 = fmul double %27, %30
  %32 = load double, double* %13, align 8
  %33 = load double, double* %8, align 8
  %34 = fsub double %32, %33
  %35 = fmul double %31, %34
  %36 = load double, double* %13, align 8
  %37 = load double, double* %9, align 8
  %38 = fsub double %36, %37
  %39 = fmul double %35, %38
  %40 = load double, double* %6, align 8
  %41 = load double, double* %7, align 8
  %42 = fmul double %40, %41
  %43 = load double, double* %8, align 8
  %44 = fmul double %42, %43
  %45 = load double, double* %9, align 8
  %46 = fmul double %44, %45
  %47 = load double, double* %12, align 8
  %48 = call double @cos(double %47) #3
  %49 = fmul double %46, %48
  %50 = load double, double* %12, align 8
  %51 = call double @cos(double %50) #3
  %52 = fmul double %49, %51
  %53 = fsub double %39, %52
  store double %53, double* %11, align 8
  %54 = load double, double* %11, align 8
  ret double %54
}

; Function Attrs: nounwind
declare dso_local double @cos(double) #1

; Function Attrs: noinline nounwind uwtable
define dso_local void @main() #0 {
  %1 = alloca double, align 8
  %2 = alloca double, align 8
  %3 = alloca double, align 8
  %4 = alloca double, align 8
  %5 = alloca double, align 8
  %6 = alloca double, align 8
  %7 = call i32 (i8*, ...) @__isoc99_scanf(i8* getelementptr inbounds ([4 x i8], [4 x i8]* @.str, i64 0, i64 0), double* %2)
  %8 = call i32 (i8*, ...) @__isoc99_scanf(i8* getelementptr inbounds ([4 x i8], [4 x i8]* @.str, i64 0, i64 0), double* %3)
  %9 = call i32 (i8*, ...) @__isoc99_scanf(i8* getelementptr inbounds ([4 x i8], [4 x i8]* @.str, i64 0, i64 0), double* %4)
  %10 = call i32 (i8*, ...) @__isoc99_scanf(i8* getelementptr inbounds ([4 x i8], [4 x i8]* @.str, i64 0, i64 0), double* %5)
  %11 = call i32 (i8*, ...) @__isoc99_scanf(i8* getelementptr inbounds ([4 x i8], [4 x i8]* @.str, i64 0, i64 0), double* %6)
  %12 = load double, double* %2, align 8
  %13 = load double, double* %3, align 8
  %14 = load double, double* %4, align 8
  %15 = load double, double* %5, align 8
  %16 = load double, double* %6, align 8
  %17 = call double @f(double %12, double %13, double %14, double %15, double %16)
  %18 = fcmp olt double %17, 0.000000e+00
  br i1 %18, label %19, label %21

19:                                               ; preds = %0
  %20 = call i32 (i8*, ...) @printf(i8* getelementptr inbounds ([14 x i8], [14 x i8]* @.str.1, i64 0, i64 0))
  br label %31

21:                                               ; preds = %0
  %22 = load double, double* %2, align 8
  %23 = load double, double* %3, align 8
  %24 = load double, double* %4, align 8
  %25 = load double, double* %5, align 8
  %26 = load double, double* %6, align 8
  %27 = call double @f(double %22, double %23, double %24, double %25, double %26)
  %28 = call double @sqrt(double %27) #3
  store double %28, double* %1, align 8
  %29 = load double, double* %1, align 8
  %30 = call i32 (i8*, ...) @printf(i8* getelementptr inbounds ([6 x i8], [6 x i8]* @.str.2, i64 0, i64 0), double %29)
  br label %31

31:                                               ; preds = %21, %19
  ret void
}

declare dso_local i32 @__isoc99_scanf(i8*, ...) #2

declare dso_local i32 @printf(i8*, ...) #2

; Function Attrs: nounwind
declare dso_local double @sqrt(double) #1


!llvm.module.flags = !{!0}
!llvm.ident = !{!1}

!0 = !{i32 1, !"wchar_size", i32 4}
!1 = !{!"clang version 10.0.0-4ubuntu1 "}
